target datalayout = "e-m:e-p270:32:32-p271:32:32-p272:64:64-i64:64-i128:128-f80:128-n8:16:32:64-S128"
target triple = "x86_64-pc-linux-gnu"

%struct.http2_session_t = type { [2 x ptr], i32, ptr, [2 x i32], [2 x i32] }
%struct.nstime_t = type { i64, i32 }
%struct.tcp_analysis = type { %struct._tcp_flow_t, %struct._tcp_flow_t, ptr, ptr, ptr, ptr, %struct.nstime_t, %struct.nstime_t, %struct.nstime_t, %struct.nstime_t, i32, i32, i16, i8, i8, ptr, i8, ptr, i8, i8, i8 }
%struct._tcp_flow_t = type { i8, i32, i32, i32, i16, i16, i8, i16, i8, i8, i8, ptr, i16, i32, i32, i16, ptr, ptr, ptr, ptr }

@proto_http2 = internal global i32 0, align 4

; Function Attrs: null_pointer_is_valid sspstrong uwtable
define internal ptr @get_http2_session(ptr noundef %0, ptr noundef %1) #1 {
  %3 = alloca ptr, align 8
  %4 = alloca ptr, align 8
  %5 = alloca ptr, align 8
  %6 = alloca ptr, align 8
  store ptr %0, ptr %3, align 8
  store ptr %1, ptr %4, align 8
  call void @llvm.lifetime.start.p0(i64 8, ptr %5) #7
  %7 = load ptr, ptr %4, align 8
  %8 = load i32, ptr @proto_http2, align 4
  %9 = call ptr @conversation_get_proto_data(ptr noundef %7, i32 noundef %8)
  store ptr %9, ptr %5, align 8
  %10 = load ptr, ptr %5, align 8
  %11 = icmp ne ptr %10, null
  br i1 %11, label %48, label %12

12:                                               ; preds = %2
  call void @llvm.lifetime.start.p0(i64 8, ptr %6) #7
  %13 = load ptr, ptr %4, align 8
  %14 = load ptr, ptr %3, align 8
  %15 = call ptr @get_tcp_conversation_data(ptr noundef %13, ptr noundef %14)
  store ptr %15, ptr %6, align 8
  %16 = call ptr @wmem_file_scope()
  %17 = call noalias ptr @wmem_alloc0(ptr noundef %16, i64 noundef 48) #8
  store ptr %17, ptr %5, align 8
  %18 = load ptr, ptr %6, align 8
  %19 = getelementptr inbounds nuw %struct.tcp_analysis, ptr %18, i32 0, i32 2
  %20 = load ptr, ptr %19, align 8
  %21 = load ptr, ptr %5, align 8
  %22 = getelementptr inbounds nuw %struct.http2_session_t, ptr %21, i32 0, i32 2
  store ptr %20, ptr %22, align 8
  %23 = call ptr @wmem_file_scope()
  %24 = call noalias ptr @wmem_list_new(ptr noundef %23)
  %25 = load ptr, ptr %5, align 8
  %26 = getelementptr inbounds nuw %struct.http2_session_t, ptr %25, i32 0, i32 0
  %27 = getelementptr [2 x ptr], ptr %26, i64 0, i64 0
  store ptr %24, ptr %27, align 8
  %28 = call ptr @wmem_file_scope()
  %29 = call noalias ptr @wmem_list_new(ptr noundef %28)
  %30 = load ptr, ptr %5, align 8
  %31 = getelementptr inbounds nuw %struct.http2_session_t, ptr %30, i32 0, i32 0
  %32 = getelementptr [2 x ptr], ptr %31, i64 0, i64 1
  store ptr %29, ptr %32, align 8
  %33 = load ptr, ptr %5, align 8
  %34 = getelementptr inbounds nuw %struct.http2_session_t, ptr %33, i32 0, i32 3
  %35 = getelementptr [2 x i32], ptr %34, i64 0, i64 0
  store i32 65535, ptr %35, align 8
  %36 = load ptr, ptr %5, align 8
  %37 = getelementptr inbounds nuw %struct.http2_session_t, ptr %36, i32 0, i32 3
  %38 = getelementptr [2 x i32], ptr %37, i64 0, i64 1
  store i32 65535, ptr %38, align 4
  %39 = load ptr, ptr %5, align 8
  %40 = getelementptr inbounds nuw %struct.http2_session_t, ptr %39, i32 0, i32 4
  %41 = getelementptr [2 x i32], ptr %40, i64 0, i64 0
  store i32 65535, ptr %41, align 8
  %42 = load ptr, ptr %5, align 8
  %43 = getelementptr inbounds nuw %struct.http2_session_t, ptr %42, i32 0, i32 4
  %44 = getelementptr [2 x i32], ptr %43, i64 0, i64 1
  store i32 65535, ptr %44, align 4
  %45 = load ptr, ptr %4, align 8
  %46 = load i32, ptr @proto_http2, align 4
  %47 = load ptr, ptr %5, align 8
  call void @conversation_add_proto_data(ptr noundef %45, i32 noundef %46, ptr noundef %47)
  call void @llvm.lifetime.end.p0(i64 8, ptr %6) #7
  br label %48

48:                                               ; preds = %12, %2
  %49 = load ptr, ptr %5, align 8
  call void @llvm.lifetime.end.p0(i64 8, ptr %5) #7
  ret ptr %49
}