; Function Attrs: null_pointer_is_valid sspstrong uwtable
define internal fastcc ptr @get_http2_session(ptr noundef %0, ptr noundef %1) unnamed_addr #1 {
  %3 = load i32, ptr @proto_http2, align 4
  %4 = tail call ptr @conversation_get_proto_data(ptr noundef %1, i32 noundef %3)
  %.not = icmp eq ptr %4, null
  br i1 %.not, label %5, label %22

5:                                                ; preds = %2
  %6 = tail call ptr @get_tcp_conversation_data(ptr noundef %1, ptr noundef %0)
  %7 = tail call ptr @wmem_file_scope()
  %8 = tail call noalias dereferenceable_or_null(48) ptr @wmem_alloc0(ptr noundef %7, i64 noundef 48) #8
  %9 = getelementptr inbounds nuw i8, ptr %6, i64 176
  %10 = load ptr, ptr %9, align 8
  %11 = getelementptr inbounds nuw i8, ptr %8, i64 24
  store ptr %10, ptr %11, align 8
  %12 = tail call ptr @wmem_file_scope()
  %13 = tail call noalias ptr @wmem_list_new(ptr noundef %12)
  store ptr %13, ptr %8, align 8
  %14 = tail call ptr @wmem_file_scope()
  %15 = tail call noalias ptr @wmem_list_new(ptr noundef %14)
  %16 = getelementptr i8, ptr %8, i64 8
  store ptr %15, ptr %16, align 8
  %17 = getelementptr inbounds nuw i8, ptr %8, i64 32
  store i32 65535, ptr %17, align 8
  %18 = getelementptr i8, ptr %8, i64 36
  store i32 65535, ptr %18, align 4
  %19 = getelementptr inbounds nuw i8, ptr %8, i64 40
  store i32 65535, ptr %19, align 8
  %20 = getelementptr i8, ptr %8, i64 44
  store i32 65535, ptr %20, align 4
  %21 = load i32, ptr @proto_http2, align 4
  tail call void @conversation_add_proto_data(ptr noundef %1, i32 noundef %21, ptr noundef %8)
  br label %22

22:                                               ; preds = %5, %2
  %.0 = phi ptr [ %4, %2 ], [ %8, %5 ]
  ret ptr %.0
}